; Function Attrs: mustprogress uwtable
define noundef zeroext i1 @_ZN5draco15MetadataDecoder10DecodeNameEPNSt7__cxx1112basic_stringIcSt11char_traitsIcESaIcEEE(ptr noundef nonnull readonly align 8 captures(none) dereferenceable(8) %0, ptr noundef %1) local_unnamed_addr #4 align 2 {
  %3 = load ptr, ptr %0, align 8, !tbaa !3
  %4 = getelementptr inbounds nuw i8, ptr %3, i64 8
  %5 = load i64, ptr %4, align 8, !tbaa !20
  %6 = getelementptr inbounds nuw i8, ptr %3, i64 16
  %7 = load i64, ptr %6, align 8, !tbaa !25
  %8 = add i64 %7, 1
  %.not = icmp slt i64 %5, %8
  br i1 %.not, label %_ZN5draco13DecoderBuffer6DecodeIhEEbPT_.exit, label %9

9:                                                ; preds = %2
  %10 = load ptr, ptr %3, align 8, !tbaa !26
  %11 = getelementptr inbounds i8, ptr %10, i64 %7
  %12 = load i8, ptr %11, align 1
  store i64 %8, ptr %6, align 8, !tbaa !25
  %13 = zext i8 %12 to i64
  tail call void @_ZNSt7__cxx1112basic_stringIcSt11char_traitsIcESaIcEE6resizeEmc(ptr noundef nonnull align 8 dereferenceable(32) %1, i64 noundef %13, i8 noundef signext 0)
  %14 = icmp eq i8 %12, 0
  br i1 %14, label %_ZN5draco13DecoderBuffer6DecodeIhEEbPT_.exit, label %15

15:                                               ; preds = %9
  %16 = load ptr, ptr %0, align 8, !tbaa !3
  %17 = getelementptr inbounds nuw i8, ptr %1, i64 8
  %18 = load i64, ptr %17, align 8, !tbaa !16
  %.not.i.not = icmp eq i64 %18, 0
  br i1 %.not.i.not, label %19, label %_ZNSt7__cxx1112basic_stringIcSt11char_traitsIcESaIcEE2atEm.exit

19:                                               ; preds = %15
  tail call void (ptr, ...) @_ZSt24__throw_out_of_range_fmtPKcz(ptr noundef nonnull @.str.2, i64 noundef 0, i64 noundef 0) #20
  unreachable

_ZNSt7__cxx1112basic_stringIcSt11char_traitsIcESaIcEE2atEm.exit: ; preds = %15
  %20 = getelementptr inbounds nuw i8, ptr %16, i64 8
  %21 = load i64, ptr %20, align 8, !tbaa !20
  %22 = getelementptr inbounds nuw i8, ptr %16, i64 16
  %23 = load i64, ptr %22, align 8, !tbaa !25
  %24 = add i64 %23, %13
  %.not9 = icmp slt i64 %21, %24
  br i1 %.not9, label %_ZN5draco13DecoderBuffer6DecodeIhEEbPT_.exit, label %25

25:                                               ; preds = %_ZNSt7__cxx1112basic_stringIcSt11char_traitsIcESaIcEE2atEm.exit
  %26 = load ptr, ptr %1, align 8, !tbaa !27
  %27 = load ptr, ptr %16, align 8, !tbaa !26
  %28 = getelementptr inbounds i8, ptr %27, i64 %23
  tail call void @llvm.memcpy.p0.p0.i64(ptr nonnull align 1 %26, ptr align 1 %28, i64 %13, i1 false)
  %29 = load i64, ptr %22, align 8, !tbaa !25
  %30 = add i64 %29, %13
  store i64 %30, ptr %22, align 8, !tbaa !25
  br label %_ZN5draco13DecoderBuffer6DecodeIhEEbPT_.exit

_ZN5draco13DecoderBuffer6DecodeIhEEbPT_.exit:     ; preds = %25, %_ZNSt7__cxx1112basic_stringIcSt11char_traitsIcESaIcEE2atEm.exit, %2, %9
  %.0 = phi i1 [ true, %9 ], [ false, %2 ], [ false, %_ZNSt7__cxx1112basic_stringIcSt11char_traitsIcESaIcEE2atEm.exit ], [ true, %25 ]
  ret i1 %.0
}